; Function Attrs: nounwind uwtable
define internal range(i32 0, 2) i32 @fold_simplify_intmod_k(ptr noundef %0) #0 {
  %2 = getelementptr inbounds nuw i8, ptr %0, i64 208
  %3 = load i32, ptr %2, align 8, !tbaa !28
  %4 = icmp sgt i32 %3, 0
  %5 = tail call range(i32 1, 32) i32 @llvm.ctpop.i32(i32 %3)
  %6 = icmp samesign ult i32 %5, 2
  %or.cond = select i1 %4, i1 %6, i1 false
  br i1 %or.cond, label %7, label %13

7:                                                ; preds = %1
  %8 = add nsw i32 %3, -1
  %9 = getelementptr inbounds nuw i8, ptr %0, i64 189
  store i8 33, ptr %9, align 1, !tbaa !28
  %10 = tail call i32 @lj_ir_kint(ptr noundef nonnull %0, i32 noundef %8) #12
  %11 = trunc i32 %10 to i16
  %12 = getelementptr inbounds nuw i8, ptr %0, i64 186
  store i16 %11, ptr %12, align 2, !tbaa !28
  br label %13

13:                                               ; preds = %1, %7
  %.0 = phi i32 [ 1, %7 ], [ 0, %1 ]
  ret i32 %.0
}